; Function Attrs: mustprogress uwtable
define void @_ZN9grpc_core12WaitForReady12DisplayValueB5cxx11ENS0_9ValueTypeE(ptr noalias sret(%"class.std::__cxx11::basic_string") align 8 %agg.result, i16 %x.coerce) local_unnamed_addr #3 align 2 personality ptr @__gxx_personality_v0 {
entry:
  %ref.tmp = alloca %"class.absl::lts_20230802::AlphaNum", align 8
  %ref.tmp1 = alloca %"class.absl::lts_20230802::AlphaNum", align 8
  %0 = and i16 %x.coerce, 1
  %tobool.not = icmp eq i16 %0, 0
  %cond = select i1 %tobool.not, ptr @.str.27, ptr @.str.26
  %call.i.i.i.i = select i1 %tobool.not, i64 5, i64 4
  store i64 %call.i.i.i.i, ptr %ref.tmp, align 8
  %1 = getelementptr inbounds i8, ptr %ref.tmp, i64 8
  store ptr %cond, ptr %1, align 8
  %2 = and i16 %x.coerce, 256
  %tobool2.not = icmp eq i16 %2, 0
  %cond3 = select i1 %tobool2.not, ptr @.str.7, ptr @.str.28
  %call.i.i.i.i1 = select i1 %tobool2.not, i64 0, i64 11
  store i64 %call.i.i.i.i1, ptr %ref.tmp1, align 8
  %3 = getelementptr inbounds i8, ptr %ref.tmp1, i64 8
  store ptr %cond3, ptr %3, align 8
  call void @_ZN4absl12lts_202308026StrCatB5cxx11ERKNS0_8AlphaNumES3_(ptr sret(%"class.std::__cxx11::basic_string") align 8 %agg.result, ptr noundef nonnull align 8 dereferenceable(48) %ref.tmp, ptr noundef nonnull align 8 dereferenceable(48) %ref.tmp1)
  ret void
}